; Function Attrs: nounwind uwtable
define void @glfwWindowHintString(i32 noundef %0, ptr noundef readonly captures(none) %1) local_unnamed_addr #0 {
  %3 = load i32, ptr @_glfw, align 8, !tbaa !138
  %.not = icmp eq i32 %3, 0
  br i1 %.not, label %4, label %5

4:                                                ; preds = %2
  tail call void (i32, ptr, ...) @_glfwInputError(i32 noundef 65537, ptr noundef null) #7
  br label %15

5:                                                ; preds = %2
  switch i32 %0, label %14 [
    i32 143362, label %6
    i32 147457, label %8
    i32 147458, label %10
    i32 155649, label %12
  ]

6:                                                ; preds = %5
  %7 = tail call ptr @strncpy(ptr noundef nonnull dereferenceable(1) getelementptr inbounds nuw (i8, ptr @_glfw, i64 800), ptr noundef nonnull dereferenceable(1) %1, i64 noundef 255) #7
  br label %15

8:                                                ; preds = %5
  %9 = tail call ptr @strncpy(ptr noundef nonnull dereferenceable(1) getelementptr inbounds nuw (i8, ptr @_glfw, i64 1056), ptr noundef nonnull dereferenceable(1) %1, i64 noundef 255) #7
  br label %15

10:                                               ; preds = %5
  %11 = tail call ptr @strncpy(ptr noundef nonnull dereferenceable(1) getelementptr inbounds nuw (i8, ptr @_glfw, i64 1312), ptr noundef nonnull dereferenceable(1) %1, i64 noundef 255) #7
  br label %15

12:                                               ; preds = %5
  %13 = tail call ptr @strncpy(ptr noundef nonnull dereferenceable(1) getelementptr inbounds nuw (i8, ptr @_glfw, i64 1576), ptr noundef nonnull dereferenceable(1) %1, i64 noundef 255) #7
  br label %15

14:                                               ; preds = %5
  tail call void (i32, ptr, ...) @_glfwInputError(i32 noundef 65539, ptr noundef nonnull @.str.2, i32 noundef %0) #7
  br label %15

15:                                               ; preds = %14, %12, %10, %8, %6, %4
  ret void
}